target datalayout = "e-m:e-p270:32:32-p271:32:32-p272:64:64-i64:64-i128:128-f80:128-n8:16:32:64-S128"
target triple = "x86_64-pc-linux-gnu"

%struct.png_struct_def = type { [1 x %struct.__jmp_buf_tag], ptr, ptr, i64, ptr, ptr, ptr, ptr, ptr, ptr, ptr, ptr, ptr, i8, i8, i32, i32, i32, i32, %struct.z_stream_s, ptr, i32, i32, i32, i32, i32, i32, i32, i32, i32, i32, i32, i32, i32, i32, i32, i32, i32, i32, i32, i32, i32, i64, i32, i32, i32, ptr, ptr, ptr, ptr, i64, i32, i32, ptr, i16, i32, i16, i8, i8, i8, i8, i8, i8, i8, i8, i8, i8, i8, i8, i8, i8, i8, i16, i8, i32, %struct.png_color_16_struct, %struct.png_color_16_struct, ptr, i32, i32, %struct.png_xy, i32, i32, i32, i32, i32, ptr, ptr, ptr, ptr, ptr, ptr, %struct.png_color_8_struct, %struct.png_color_8_struct, ptr, %struct.png_color_16_struct, ptr, ptr, ptr, ptr, ptr, ptr, ptr, ptr, ptr, i32, i32, i64, i64, i64, i64, i32, i32, ptr, ptr, i32, [29 x i8], i32, ptr, ptr, i32, i32, ptr, i8, i8, i16, i16, ptr, i32, i8, ptr, ptr, ptr, ptr, ptr, ptr, ptr, i8, i32, i32, i32, i64, %struct.png_unknown_chunk_t, i64, ptr, i64, i32, i32, ptr, [4 x ptr] }
%struct.__jmp_buf_tag = type { [8 x i64], i32, %struct.__sigset_t }
%struct.__sigset_t = type { [16 x i64] }
%struct.z_stream_s = type { ptr, i32, i64, ptr, i32, i64, ptr, ptr, ptr, ptr, ptr, i32, i64, i64 }
%struct.png_xy = type { i32, i32, i32, i32, i32, i32, i32, i32 }
%struct.png_color_8_struct = type { i8, i8, i8, i8, i8 }
%struct.png_color_16_struct = type { i8, i16, i16, i16, i16 }
%struct.png_unknown_chunk_t = type { [5 x i8], ptr, i64, i8 }

@.str.27 = private unnamed_addr constant [36 x i8] c"unknown chunk exceeds memory limits\00", align 1

; Function Attrs: nounwind uwtable
define void @png_crc_read(ptr noalias noundef %0, ptr noundef %1, i32 noundef %2) #0 {
  %4 = alloca ptr, align 8
  %5 = alloca ptr, align 8
  %6 = alloca i32, align 4
  store ptr %0, ptr %4, align 8, !tbaa !3
  store ptr %1, ptr %5, align 8, !tbaa !8
  store i32 %2, ptr %6, align 4, !tbaa !11
  %7 = load ptr, ptr %4, align 8, !tbaa !3
  %8 = icmp eq ptr %7, null
  br i1 %8, label %9, label %10

9:                                                ; preds = %3
  br label %19

10:                                               ; preds = %3
  %11 = load ptr, ptr %4, align 8, !tbaa !3
  %12 = load ptr, ptr %5, align 8, !tbaa !8
  %13 = load i32, ptr %6, align 4, !tbaa !11
  %14 = zext i32 %13 to i64
  call void @png_read_data(ptr noundef %11, ptr noundef %12, i64 noundef %14)
  %15 = load ptr, ptr %4, align 8, !tbaa !3
  %16 = load ptr, ptr %5, align 8, !tbaa !8
  %17 = load i32, ptr %6, align 4, !tbaa !11
  %18 = zext i32 %17 to i64
  call void @png_calculate_crc(ptr noundef %15, ptr noundef %16, i64 noundef %18)
  br label %19

19:                                               ; preds = %10, %9
  ret void
}

; Function Attrs: nounwind uwtable
define i32 @png_crc_finish(ptr noalias noundef %0, i32 noundef %1) #0 {
  %3 = alloca ptr, align 8
  %4 = alloca i32, align 4
  store ptr %0, ptr %3, align 8, !tbaa !3
  store i32 %1, ptr %4, align 4, !tbaa !11
  %5 = load ptr, ptr %3, align 8, !tbaa !3
  %6 = load i32, ptr %4, align 4, !tbaa !11
  %7 = call i32 @png_crc_finish_critical(ptr noundef %5, i32 noundef %6, i32 noundef 0)
  ret i32 %7
}

; Function Attrs: nounwind uwtable
define internal i32 @png_cache_unknown_chunk(ptr noalias noundef %0, i32 noundef %1) #0 {
  %3 = alloca i32, align 4
  %4 = alloca ptr, align 8
  %5 = alloca i32, align 4
  %6 = alloca i64, align 8
  %7 = alloca i32, align 4
  store ptr %0, ptr %4, align 8, !tbaa !3
  store i32 %1, ptr %5, align 4, !tbaa !11
  call void @llvm.lifetime.start.p0(i64 8, ptr %6) #7
  %8 = load ptr, ptr %4, align 8, !tbaa !3
  %9 = getelementptr inbounds nuw %struct.png_struct_def, ptr %8, i32 0, i32 141
  %10 = load i64, ptr %9, align 8, !tbaa !44
  store i64 %10, ptr %6, align 8, !tbaa !29
  %11 = load ptr, ptr %4, align 8, !tbaa !3
  %12 = getelementptr inbounds nuw %struct.png_struct_def, ptr %11, i32 0, i32 142
  %13 = getelementptr inbounds nuw %struct.png_unknown_chunk_t, ptr %12, i32 0, i32 1
  %14 = load ptr, ptr %13, align 8, !tbaa !43
  %15 = icmp ne ptr %14, null
  br i1 %15, label %16, label %25

16:                                               ; preds = %2
  %17 = load ptr, ptr %4, align 8, !tbaa !3
  %18 = load ptr, ptr %4, align 8, !tbaa !3
  %19 = getelementptr inbounds nuw %struct.png_struct_def, ptr %18, i32 0, i32 142
  %20 = getelementptr inbounds nuw %struct.png_unknown_chunk_t, ptr %19, i32 0, i32 1
  %21 = load ptr, ptr %20, align 8, !tbaa !43
  call void @png_free(ptr noundef %17, ptr noundef %21)
  %22 = load ptr, ptr %4, align 8, !tbaa !3
  %23 = getelementptr inbounds nuw %struct.png_struct_def, ptr %22, i32 0, i32 142
  %24 = getelementptr inbounds nuw %struct.png_unknown_chunk_t, ptr %23, i32 0, i32 1
  store ptr null, ptr %24, align 8, !tbaa !43
  br label %25

25:                                               ; preds = %16, %2
  %26 = load i32, ptr %5, align 4, !tbaa !11
  %27 = zext i32 %26 to i64
  %28 = load i64, ptr %6, align 8, !tbaa !29
  %29 = icmp ule i64 %27, %28
  br i1 %29, label %30, label %106

30:                                               ; preds = %25
  %31 = load ptr, ptr %4, align 8, !tbaa !3
  %32 = getelementptr inbounds nuw %struct.png_struct_def, ptr %31, i32 0, i32 45
  %33 = load i32, ptr %32, align 8, !tbaa !32
  %34 = lshr i32 %33, 24
  %35 = and i32 %34, 255
  %36 = trunc i32 %35 to i8
  %37 = load ptr, ptr %4, align 8, !tbaa !3
  %38 = getelementptr inbounds nuw %struct.png_struct_def, ptr %37, i32 0, i32 142
  %39 = getelementptr inbounds nuw %struct.png_unknown_chunk_t, ptr %38, i32 0, i32 0
  %40 = getelementptr inbounds [5 x i8], ptr %39, i64 0, i64 0
  %41 = getelementptr inbounds i8, ptr %40, i64 0
  store i8 %36, ptr %41, align 8, !tbaa !10
  %42 = load ptr, ptr %4, align 8, !tbaa !3
  %43 = getelementptr inbounds nuw %struct.png_struct_def, ptr %42, i32 0, i32 45
  %44 = load i32, ptr %43, align 8, !tbaa !32
  %45 = lshr i32 %44, 16
  %46 = and i32 %45, 255
  %47 = trunc i32 %46 to i8
  %48 = load ptr, ptr %4, align 8, !tbaa !3
  %49 = getelementptr inbounds nuw %struct.png_struct_def, ptr %48, i32 0, i32 142
  %50 = getelementptr inbounds nuw %struct.png_unknown_chunk_t, ptr %49, i32 0, i32 0
  %51 = getelementptr inbounds [5 x i8], ptr %50, i64 0, i64 0
  %52 = getelementptr inbounds i8, ptr %51, i64 1
  store i8 %47, ptr %52, align 1, !tbaa !10
  %53 = load ptr, ptr %4, align 8, !tbaa !3
  %54 = getelementptr inbounds nuw %struct.png_struct_def, ptr %53, i32 0, i32 45
  %55 = load i32, ptr %54, align 8, !tbaa !32
  %56 = lshr i32 %55, 8
  %57 = and i32 %56, 255
  %58 = trunc i32 %57 to i8
  %59 = load ptr, ptr %4, align 8, !tbaa !3
  %60 = getelementptr inbounds nuw %struct.png_struct_def, ptr %59, i32 0, i32 142
  %61 = getelementptr inbounds nuw %struct.png_unknown_chunk_t, ptr %60, i32 0, i32 0
  %62 = getelementptr inbounds [5 x i8], ptr %61, i64 0, i64 0
  %63 = getelementptr inbounds i8, ptr %62, i64 2
  store i8 %58, ptr %63, align 2, !tbaa !10
  %64 = load ptr, ptr %4, align 8, !tbaa !3
  %65 = getelementptr inbounds nuw %struct.png_struct_def, ptr %64, i32 0, i32 45
  %66 = load i32, ptr %65, align 8, !tbaa !32
  %67 = and i32 %66, 255
  %68 = trunc i32 %67 to i8
  %69 = load ptr, ptr %4, align 8, !tbaa !3
  %70 = getelementptr inbounds nuw %struct.png_struct_def, ptr %69, i32 0, i32 142
  %71 = getelementptr inbounds nuw %struct.png_unknown_chunk_t, ptr %70, i32 0, i32 0
  %72 = getelementptr inbounds [5 x i8], ptr %71, i64 0, i64 0
  %73 = getelementptr inbounds i8, ptr %72, i64 3
  store i8 %68, ptr %73, align 1, !tbaa !10
  %74 = load ptr, ptr %4, align 8, !tbaa !3
  %75 = getelementptr inbounds nuw %struct.png_struct_def, ptr %74, i32 0, i32 142
  %76 = getelementptr inbounds nuw %struct.png_unknown_chunk_t, ptr %75, i32 0, i32 0
  %77 = getelementptr inbounds [5 x i8], ptr %76, i64 0, i64 0
  %78 = getelementptr inbounds i8, ptr %77, i64 4
  store i8 0, ptr %78, align 4, !tbaa !10
  %79 = load i32, ptr %5, align 4, !tbaa !11
  %80 = zext i32 %79 to i64
  %81 = load ptr, ptr %4, align 8, !tbaa !3
  %82 = getelementptr inbounds nuw %struct.png_struct_def, ptr %81, i32 0, i32 142
  %83 = getelementptr inbounds nuw %struct.png_unknown_chunk_t, ptr %82, i32 0, i32 2
  store i64 %80, ptr %83, align 8, !tbaa !45
  %84 = load ptr, ptr %4, align 8, !tbaa !3
  %85 = getelementptr inbounds nuw %struct.png_struct_def, ptr %84, i32 0, i32 15
  %86 = load i32, ptr %85, align 4, !tbaa !31
  %87 = trunc i32 %86 to i8
  %88 = load ptr, ptr %4, align 8, !tbaa !3
  %89 = getelementptr inbounds nuw %struct.png_struct_def, ptr %88, i32 0, i32 142
  %90 = getelementptr inbounds nuw %struct.png_unknown_chunk_t, ptr %89, i32 0, i32 3
  store i8 %87, ptr %90, align 8, !tbaa !46
  %91 = load i32, ptr %5, align 4, !tbaa !11
  %92 = icmp eq i32 %91, 0
  br i1 %92, label %93, label %97

93:                                               ; preds = %30
  %94 = load ptr, ptr %4, align 8, !tbaa !3
  %95 = getelementptr inbounds nuw %struct.png_struct_def, ptr %94, i32 0, i32 142
  %96 = getelementptr inbounds nuw %struct.png_unknown_chunk_t, ptr %95, i32 0, i32 1
  store ptr null, ptr %96, align 8, !tbaa !43
  br label %105

97:                                               ; preds = %30
  %98 = load ptr, ptr %4, align 8, !tbaa !3
  %99 = load i32, ptr %5, align 4, !tbaa !11
  %100 = zext i32 %99 to i64
  %101 = call noalias ptr @png_malloc_warn(ptr noundef %98, i64 noundef %100)
  %102 = load ptr, ptr %4, align 8, !tbaa !3
  %103 = getelementptr inbounds nuw %struct.png_struct_def, ptr %102, i32 0, i32 142
  %104 = getelementptr inbounds nuw %struct.png_unknown_chunk_t, ptr %103, i32 0, i32 1
  store ptr %101, ptr %104, align 8, !tbaa !43
  br label %105

105:                                              ; preds = %97, %93
  br label %106

106:                                              ; preds = %105, %25
  %107 = load ptr, ptr %4, align 8, !tbaa !3
  %108 = getelementptr inbounds nuw %struct.png_struct_def, ptr %107, i32 0, i32 142
  %109 = getelementptr inbounds nuw %struct.png_unknown_chunk_t, ptr %108, i32 0, i32 1
  %110 = load ptr, ptr %109, align 8, !tbaa !43
  %111 = icmp eq ptr %110, null
  br i1 %111, label %112, label %120

112:                                              ; preds = %106
  %113 = load i32, ptr %5, align 4, !tbaa !11
  %114 = icmp ugt i32 %113, 0
  br i1 %114, label %115, label %120

115:                                              ; preds = %112
  %116 = load ptr, ptr %4, align 8, !tbaa !3
  %117 = load i32, ptr %5, align 4, !tbaa !11
  %118 = call i32 @png_crc_finish(ptr noundef %116, i32 noundef %117)
  %119 = load ptr, ptr %4, align 8, !tbaa !3
  call void @png_chunk_benign_error(ptr noundef %119, ptr noundef @.str.27)
  store i32 0, ptr %3, align 4
  store i32 1, ptr %7, align 4
  br label %133

120:                                              ; preds = %112, %106
  %121 = load i32, ptr %5, align 4, !tbaa !11
  %122 = icmp ugt i32 %121, 0
  br i1 %122, label %123, label %130

123:                                              ; preds = %120
  %124 = load ptr, ptr %4, align 8, !tbaa !3
  %125 = load ptr, ptr %4, align 8, !tbaa !3
  %126 = getelementptr inbounds nuw %struct.png_struct_def, ptr %125, i32 0, i32 142
  %127 = getelementptr inbounds nuw %struct.png_unknown_chunk_t, ptr %126, i32 0, i32 1
  %128 = load ptr, ptr %127, align 8, !tbaa !43
  %129 = load i32, ptr %5, align 4, !tbaa !11
  call void @png_crc_read(ptr noundef %124, ptr noundef %128, i32 noundef %129)
  br label %130

130:                                              ; preds = %123, %120
  %131 = load ptr, ptr %4, align 8, !tbaa !3
  %132 = call i32 @png_crc_finish(ptr noundef %131, i32 noundef 0)
  store i32 1, ptr %3, align 4
  store i32 1, ptr %7, align 4
  br label %133

133:                                              ; preds = %130, %115
  call void @llvm.lifetime.end.p0(i64 8, ptr %6) #7
  %134 = load i32, ptr %3, align 4
  ret i32 %134
}