; Function Attrs: nounwind uwtable
define internal fastcc range(i32 0, 2) i32 @png_cache_unknown_chunk(ptr noalias noundef %0, i32 noundef %1) unnamed_addr #0 {
  %3 = getelementptr inbounds nuw i8, ptr %0, i64 1128
  %4 = load i64, ptr %3, align 8, !tbaa !46
  %5 = getelementptr inbounds nuw i8, ptr %0, i64 1136
  %6 = getelementptr inbounds nuw i8, ptr %0, i64 1144
  %7 = load ptr, ptr %6, align 8, !tbaa !45
  %.not = icmp eq ptr %7, null
  br i1 %.not, label %9, label %8

8:                                                ; preds = %2
  tail call void @png_free(ptr noundef nonnull %0, ptr noundef nonnull %7) #12
  store ptr null, ptr %6, align 8, !tbaa !45
  br label %9

9:                                                ; preds = %8, %2
  %10 = zext i32 %1 to i64
  %.not39 = icmp ult i64 %4, %10
  br i1 %.not39, label %33, label %11

11:                                               ; preds = %9
  %12 = getelementptr inbounds nuw i8, ptr %0, i64 544
  %13 = load i32, ptr %12, align 8, !tbaa !28
  %14 = lshr i32 %13, 24
  %15 = trunc nuw i32 %14 to i8
  store i8 %15, ptr %5, align 8, !tbaa !3
  %16 = lshr i32 %13, 16
  %17 = trunc i32 %16 to i8
  %18 = getelementptr inbounds nuw i8, ptr %0, i64 1137
  store i8 %17, ptr %18, align 1, !tbaa !3
  %19 = lshr i32 %13, 8
  %20 = trunc i32 %19 to i8
  %21 = getelementptr inbounds nuw i8, ptr %0, i64 1138
  store i8 %20, ptr %21, align 2, !tbaa !3
  %22 = trunc i32 %13 to i8
  %23 = getelementptr inbounds nuw i8, ptr %0, i64 1139
  store i8 %22, ptr %23, align 1, !tbaa !3
  %24 = getelementptr inbounds nuw i8, ptr %0, i64 1140
  store i8 0, ptr %24, align 4, !tbaa !3
  %25 = getelementptr inbounds nuw i8, ptr %0, i64 1152
  store i64 %10, ptr %25, align 8, !tbaa !47
  %26 = getelementptr inbounds nuw i8, ptr %0, i64 300
  %27 = load i32, ptr %26, align 4, !tbaa !24
  %28 = trunc i32 %27 to i8
  %29 = getelementptr inbounds nuw i8, ptr %0, i64 1160
  store i8 %28, ptr %29, align 8, !tbaa !48
  %30 = icmp eq i32 %1, 0
  br i1 %30, label %.thread, label %31

.thread:                                          ; preds = %11
  store ptr null, ptr %6, align 8, !tbaa !45
  br label %40

31:                                               ; preds = %11
  %32 = tail call noalias ptr @png_malloc_warn(ptr noundef nonnull %0, i64 noundef %10) #12
  store ptr %32, ptr %6, align 8, !tbaa !45
  br label %33

33:                                               ; preds = %31, %9
  %34 = phi ptr [ %32, %31 ], [ null, %9 ]
  %35 = icmp eq ptr %34, null
  %36 = icmp ne i32 %1, 0
  %or.cond = and i1 %36, %35
  br i1 %or.cond, label %37, label %39

37:                                               ; preds = %33
  %38 = tail call fastcc range(i32 0, 2) i32 @png_crc_finish_critical(ptr noundef nonnull %0, i32 noundef %1, i32 noundef 0)
  tail call void @png_chunk_benign_error(ptr noundef nonnull %0, ptr noundef nonnull @.str.27) #12
  br label %42

39:                                               ; preds = %33
  br i1 %36, label %png_crc_read.exit, label %40

png_crc_read.exit:                                ; preds = %39
  tail call void @png_read_data(ptr noundef nonnull %0, ptr noundef %34, i64 noundef %10) #12
  tail call void @png_calculate_crc(ptr noundef nonnull %0, ptr noundef %34, i64 noundef %10) #12
  br label %40

40:                                               ; preds = %.thread, %png_crc_read.exit, %39
  %41 = tail call fastcc range(i32 0, 2) i32 @png_crc_finish_critical(ptr noundef nonnull %0, i32 noundef 0, i32 noundef 0)
  br label %42

42:                                               ; preds = %40, %37
  %.0 = phi i32 [ 0, %37 ], [ 1, %40 ]
  ret i32 %.0
}